target datalayout = "e-m:e-p270:32:32-p271:32:32-p272:64:64-i64:64-i128:128-f80:128-n8:16:32:64-S128"
target triple = "x86_64-unknown-linux-gnu"

%"class.std::__shared_count" = type { ptr }
%"class.std::shared_ptr.18" = type { %"class.std::__shared_ptr.19" }
%"class.std::__shared_ptr.19" = type { ptr, %"class.std::__shared_count" }
%"class.std::vector.41" = type { %"struct.std::_Vector_base.42" }
%"struct.std::_Vector_base.42" = type { %"struct.std::_Vector_base<rocksdb::DbPath, std::allocator<rocksdb::DbPath>>::_Vector_impl" }
%"struct.std::_Vector_base<rocksdb::DbPath, std::allocator<rocksdb::DbPath>>::_Vector_impl" = type { %"struct.std::_Vector_base<rocksdb::DbPath, std::allocator<rocksdb::DbPath>>::_Vector_impl_data" }
%"struct.std::_Vector_base<rocksdb::DbPath, std::allocator<rocksdb::DbPath>>::_Vector_impl_data" = type { ptr, ptr, ptr }
%"class.std::shared_ptr.29" = type { %"class.std::__shared_ptr.30" }
%"class.std::__shared_ptr.30" = type { ptr, %"class.std::__shared_count" }
%"class.std::shared_ptr.32" = type { %"class.std::__shared_ptr.33" }
%"class.std::__shared_ptr.33" = type { ptr, %"class.std::__shared_count" }
%"class.std::shared_ptr.35" = type { %"class.std::__shared_ptr.36" }
%"class.std::__shared_ptr.36" = type { ptr, %"class.std::__shared_count" }
%"class.std::shared_ptr.38" = type { %"class.std::__shared_ptr.39" }
%"class.std::__shared_ptr.39" = type { ptr, %"class.std::__shared_count" }
%"class.std::shared_ptr.49" = type { %"class.std::__shared_ptr.50" }
%"class.std::__shared_ptr.50" = type { ptr, %"class.std::__shared_count" }
%"class.std::vector.52" = type { %"struct.std::_Vector_base.53" }
%"struct.std::_Vector_base.53" = type { %"struct.std::_Vector_base<std::shared_ptr<rocksdb::EventListener>, std::allocator<std::shared_ptr<rocksdb::EventListener>>>::_Vector_impl" }
%"struct.std::_Vector_base<std::shared_ptr<rocksdb::EventListener>, std::allocator<std::shared_ptr<rocksdb::EventListener>>>::_Vector_impl" = type { %"struct.std::_Vector_base<std::shared_ptr<rocksdb::EventListener>, std::allocator<std::shared_ptr<rocksdb::EventListener>>>::_Vector_impl_data" }
%"struct.std::_Vector_base<std::shared_ptr<rocksdb::EventListener>, std::allocator<std::shared_ptr<rocksdb::EventListener>>>::_Vector_impl_data" = type { ptr, ptr, ptr }
%"class.std::shared_ptr.57" = type { %"class.std::__shared_ptr.58" }
%"class.std::__shared_ptr.58" = type { ptr, %"class.std::__shared_count" }
%"class.rocksdb::SmallEnumSet" = type { i64 }
%"class.std::shared_ptr.60" = type { %"class.std::__shared_ptr.61" }
%"class.std::__shared_ptr.61" = type { ptr, %"class.std::__shared_count" }
%"class.std::__cxx11::basic_string" = type { %"struct.std::__cxx11::basic_string<char>::_Alloc_hider", i64, %union.anon }
%"struct.std::__cxx11::basic_string<char>::_Alloc_hider" = type { ptr }
%union.anon = type { i64, [8 x i8] }
%"struct.rocksdb::ImmutableDBOptions" = type <{ i8, i8, i8, i8, i8, i8, i8, i8, ptr, %"class.std::shared_ptr.29", %"class.std::shared_ptr.32", %"class.std::shared_ptr.35", i8, [3 x i8], i32, %"class.std::shared_ptr.38", i8, [7 x i8], %"class.std::vector.41", %"class.std::__cxx11::basic_string", %"class.std::__cxx11::basic_string", i64, i64, i64, i64, i64, i32, [4 x i8], i64, i64, i64, i64, i8, i8, i8, i8, i8, i8, i8, i8, i64, %"class.std::shared_ptr.49", i32, [4 x i8], i64, i8, [7 x i8], %"class.std::vector.52", i8, i8, i8, i8, i8, [3 x i8], i64, i64, i8, i8, i8, i8, [4 x i8], %"class.std::shared_ptr.18", ptr, i8, i8, i8, i8, i8, i8, i8, i8, i8, i8, i8, [5 x i8], i64, %"class.std::shared_ptr.57", i8, [3 x i8], i32, i64, i8, [7 x i8], %"class.std::__cxx11::basic_string", %"class.rocksdb::SmallEnumSet", i8, [7 x i8], %"class.std::shared_ptr.93", ptr, ptr, ptr, %"class.std::shared_ptr.60", i8, [7 x i8] }>
%"class.std::shared_ptr.93" = type { %"class.std::__shared_ptr.94" }
%"class.std::__shared_ptr.94" = type { ptr, %"class.std::__shared_count" }
%"struct.rocksdb::MutableDBOptions" = type { i32, i32, i32, i8, i64, i64, i64, i64, i32, i32, i64, i32, i64, i64, i8, i64, i32, %"class.std::__cxx11::basic_string" }

; Function Attrs: mustprogress nounwind uwtable
define linkonce_odr void @_ZN7rocksdb16MutableDBOptionsD2Ev(ptr noundef nonnull align 8 dereferenceable(144) %this) unnamed_addr #1 comdat align 2 {
entry:
  %this.addr = alloca ptr, align 8
  store ptr %this, ptr %this.addr, align 8
  %this1 = load ptr, ptr %this.addr, align 8
  %daily_offpeak_time_utc = getelementptr inbounds %"struct.rocksdb::MutableDBOptions", ptr %this1, i32 0, i32 17
  call void @_ZNSt7__cxx1112basic_stringIcSt11char_traitsIcESaIcEED1Ev(ptr noundef nonnull align 8 dereferenceable(32) %daily_offpeak_time_utc) #11
  ret void
}

; Function Attrs: mustprogress uwtable
define void @_ZNK7rocksdb9DBOptions4DumpEPNS_6LoggerE(ptr noundef nonnull align 8 dereferenceable(688) %this, ptr noundef %log) #0 align 2 personality ptr @__gxx_personality_v0 {
entry:
  %this.addr = alloca ptr, align 8
  %log.addr = alloca ptr, align 8
  %ref.tmp = alloca %"struct.rocksdb::ImmutableDBOptions", align 8
  %exn.slot = alloca ptr, align 8
  %ehselector.slot = alloca i32, align 4
  %ref.tmp2 = alloca %"struct.rocksdb::MutableDBOptions", align 8
  store ptr %this, ptr %this.addr, align 8
  store ptr %log, ptr %log.addr, align 8
  %this1 = load ptr, ptr %this.addr, align 8
  call void @_ZN7rocksdb18ImmutableDBOptionsC1ERKNS_9DBOptionsE(ptr noundef nonnull align 8 dereferenceable(569) %ref.tmp, ptr noundef nonnull align 8 dereferenceable(688) %this1)
  %0 = load ptr, ptr %log.addr, align 8
  invoke void @_ZNK7rocksdb18ImmutableDBOptions4DumpEPNS_6LoggerE(ptr noundef nonnull align 8 dereferenceable(569) %ref.tmp, ptr noundef %0)
          to label %invoke.cont unwind label %lpad

invoke.cont:                                      ; preds = %entry
  call void @_ZN7rocksdb18ImmutableDBOptionsD2Ev(ptr noundef nonnull align 8 dereferenceable(569) %ref.tmp) #11
  call void @_ZN7rocksdb16MutableDBOptionsC1ERKNS_9DBOptionsE(ptr noundef nonnull align 8 dereferenceable(144) %ref.tmp2, ptr noundef nonnull align 8 dereferenceable(688) %this1)
  %1 = load ptr, ptr %log.addr, align 8
  invoke void @_ZNK7rocksdb16MutableDBOptions4DumpEPNS_6LoggerE(ptr noundef nonnull align 8 dereferenceable(144) %ref.tmp2, ptr noundef %1)
          to label %invoke.cont4 unwind label %lpad3

invoke.cont4:                                     ; preds = %invoke.cont
  call void @_ZN7rocksdb16MutableDBOptionsD2Ev(ptr noundef nonnull align 8 dereferenceable(144) %ref.tmp2) #11
  ret void

lpad:                                             ; preds = %entry
  %2 = landingpad { ptr, i32 }
          cleanup
  %3 = extractvalue { ptr, i32 } %2, 0
  store ptr %3, ptr %exn.slot, align 8
  %4 = extractvalue { ptr, i32 } %2, 1
  store i32 %4, ptr %ehselector.slot, align 4
  call void @_ZN7rocksdb18ImmutableDBOptionsD2Ev(ptr noundef nonnull align 8 dereferenceable(569) %ref.tmp) #11
  br label %eh.resume

lpad3:                                            ; preds = %invoke.cont
  %5 = landingpad { ptr, i32 }
          cleanup
  %6 = extractvalue { ptr, i32 } %5, 0
  store ptr %6, ptr %exn.slot, align 8
  %7 = extractvalue { ptr, i32 } %5, 1
  store i32 %7, ptr %ehselector.slot, align 4
  call void @_ZN7rocksdb16MutableDBOptionsD2Ev(ptr noundef nonnull align 8 dereferenceable(144) %ref.tmp2) #11
  br label %eh.resume

eh.resume:                                        ; preds = %lpad3, %lpad
  %exn = load ptr, ptr %exn.slot, align 8
  %sel = load i32, ptr %ehselector.slot, align 4
  %lpad.val = insertvalue { ptr, i32 } poison, ptr %exn, 0
  %lpad.val5 = insertvalue { ptr, i32 } %lpad.val, i32 %sel, 1
  resume { ptr, i32 } %lpad.val5
}