; Function Attrs: mustprogress uwtable
define void @_ZNK7rocksdb9DBOptions4DumpEPNS_6LoggerE(ptr noundef nonnull align 8 dereferenceable(688) %this, ptr noundef %log) local_unnamed_addr #0 align 2 personality ptr @__gxx_personality_v0 {
entry:
  %ref.tmp = alloca %"struct.rocksdb::ImmutableDBOptions", align 8
  %ref.tmp2 = alloca %"struct.rocksdb::MutableDBOptions", align 8
  call void @_ZN7rocksdb18ImmutableDBOptionsC1ERKNS_9DBOptionsE(ptr noundef nonnull align 8 dereferenceable(569) %ref.tmp, ptr noundef nonnull align 8 dereferenceable(688) %this)
  invoke void @_ZNK7rocksdb18ImmutableDBOptions4DumpEPNS_6LoggerE(ptr noundef nonnull align 8 dereferenceable(569) %ref.tmp, ptr noundef %log)
          to label %invoke.cont unwind label %lpad

invoke.cont:                                      ; preds = %entry
  call void @_ZN7rocksdb18ImmutableDBOptionsD2Ev(ptr noundef nonnull align 8 dereferenceable(569) %ref.tmp) #16
  call void @_ZN7rocksdb16MutableDBOptionsC1ERKNS_9DBOptionsE(ptr noundef nonnull align 8 dereferenceable(144) %ref.tmp2, ptr noundef nonnull align 8 dereferenceable(688) %this)
  invoke void @_ZNK7rocksdb16MutableDBOptions4DumpEPNS_6LoggerE(ptr noundef nonnull align 8 dereferenceable(144) %ref.tmp2, ptr noundef %log)
          to label %invoke.cont4 unwind label %lpad3

invoke.cont4:                                     ; preds = %invoke.cont
  %daily_offpeak_time_utc.i = getelementptr inbounds i8, ptr %ref.tmp2, i64 112
  call void @_ZNSt7__cxx1112basic_stringIcSt11char_traitsIcESaIcEED1Ev(ptr noundef nonnull align 8 dereferenceable(32) %daily_offpeak_time_utc.i) #16
  ret void

lpad:                                             ; preds = %entry
  %0 = landingpad { ptr, i32 }
          cleanup
  call void @_ZN7rocksdb18ImmutableDBOptionsD2Ev(ptr noundef nonnull align 8 dereferenceable(569) %ref.tmp) #16
  br label %eh.resume

lpad3:                                            ; preds = %invoke.cont
  %1 = landingpad { ptr, i32 }
          cleanup
  %daily_offpeak_time_utc.i3 = getelementptr inbounds i8, ptr %ref.tmp2, i64 112
  call void @_ZNSt7__cxx1112basic_stringIcSt11char_traitsIcESaIcEED1Ev(ptr noundef nonnull align 8 dereferenceable(32) %daily_offpeak_time_utc.i3) #16
  br label %eh.resume

eh.resume:                                        ; preds = %lpad3, %lpad
  %.pn = phi { ptr, i32 } [ %1, %lpad3 ], [ %0, %lpad ]
  resume { ptr, i32 } %.pn
}